target datalayout = "e-m:e-p270:32:32-p271:32:32-p272:64:64-i64:64-i128:128-f80:128-n8:16:32:64-S128"
target triple = "x86_64-pc-linux-gnu"

%struct.URLContext = type { ptr, ptr, ptr, ptr, i32, i32, i32, i32, %struct.AVIOInterruptCB, i64, ptr, ptr, i32 }
%struct.AVIOInterruptCB = type { ptr, ptr }
%struct.concat_data = type { ptr, i64, i64, i64 }
%struct.concat_nodes = type { ptr, i64 }

; Function Attrs: inlinehint nounwind uwtable
define internal i64 @ffurl_seek(ptr noundef %0, i64 noundef %1, i32 noundef %2) #5 {
  %4 = alloca ptr, align 8
  %5 = alloca i64, align 8
  %6 = alloca i32, align 4
  store ptr %0, ptr %4, align 8, !tbaa !4
  store i64 %1, ptr %5, align 8, !tbaa !13
  store i32 %2, ptr %6, align 4, !tbaa !11
  %7 = load ptr, ptr %4, align 8, !tbaa !4
  %8 = load i64, ptr %5, align 8, !tbaa !13
  %9 = load i32, ptr %6, align 4, !tbaa !11
  %10 = call i64 @ffurl_seek2(ptr noundef %7, i64 noundef %8, i32 noundef %9)
  ret i64 %10
}

; Function Attrs: nounwind uwtable
define internal i64 @concat_seek(ptr noundef %0, i64 noundef %1, i32 noundef %2) #1 {
  %4 = alloca i64, align 8
  %5 = alloca ptr, align 8
  %6 = alloca i64, align 8
  %7 = alloca i32, align 4
  %8 = alloca i64, align 8
  %9 = alloca ptr, align 8
  %10 = alloca ptr, align 8
  %11 = alloca i64, align 8
  %12 = alloca i32, align 4
  store ptr %0, ptr %5, align 8, !tbaa !4
  store i64 %1, ptr %6, align 8, !tbaa !13
  store i32 %2, ptr %7, align 4, !tbaa !11
  call void @llvm.lifetime.start.p0(i64 8, ptr %8) #6
  call void @llvm.lifetime.start.p0(i64 8, ptr %9) #6
  %13 = load ptr, ptr %5, align 8, !tbaa !4
  %14 = getelementptr inbounds nuw %struct.URLContext, ptr %13, i32 0, i32 2
  %15 = load ptr, ptr %14, align 8, !tbaa !15
  store ptr %15, ptr %9, align 8, !tbaa !20
  call void @llvm.lifetime.start.p0(i64 8, ptr %10) #6
  %16 = load ptr, ptr %9, align 8, !tbaa !20
  %17 = getelementptr inbounds nuw %struct.concat_data, ptr %16, i32 0, i32 0
  %18 = load ptr, ptr %17, align 8, !tbaa !27
  store ptr %18, ptr %10, align 8, !tbaa !25
  call void @llvm.lifetime.start.p0(i64 8, ptr %11) #6
  %19 = load i32, ptr %7, align 4, !tbaa !11
  %20 = and i32 %19, 65536
  %21 = icmp ne i32 %20, 0
  br i1 %21, label %22, label %26

22:                                               ; preds = %3
  %23 = load ptr, ptr %9, align 8, !tbaa !20
  %24 = getelementptr inbounds nuw %struct.concat_data, ptr %23, i32 0, i32 3
  %25 = load i64, ptr %24, align 8, !tbaa !36
  store i64 %25, ptr %4, align 8
  store i32 1, ptr %12, align 4
  br label %147

26:                                               ; preds = %3
  %27 = load i32, ptr %7, align 4, !tbaa !11
  switch i32 %27, label %116 [
    i32 2, label %28
    i32 1, label %59
    i32 0, label %86
  ]

28:                                               ; preds = %26
  %29 = load ptr, ptr %9, align 8, !tbaa !20
  %30 = getelementptr inbounds nuw %struct.concat_data, ptr %29, i32 0, i32 1
  %31 = load i64, ptr %30, align 8, !tbaa !35
  %32 = sub i64 %31, 1
  store i64 %32, ptr %11, align 8, !tbaa !13
  br label %33

33:                                               ; preds = %55, %28
  %34 = load i64, ptr %11, align 8, !tbaa !13
  %35 = icmp ne i64 %34, 0
  br i1 %35, label %36, label %45

36:                                               ; preds = %33
  %37 = load i64, ptr %6, align 8, !tbaa !13
  %38 = load ptr, ptr %10, align 8, !tbaa !25
  %39 = load i64, ptr %11, align 8, !tbaa !13
  %40 = getelementptr inbounds nuw %struct.concat_nodes, ptr %38, i64 %39
  %41 = getelementptr inbounds nuw %struct.concat_nodes, ptr %40, i32 0, i32 1
  %42 = load i64, ptr %41, align 8, !tbaa !33
  %43 = sub nsw i64 0, %42
  %44 = icmp slt i64 %37, %43
  br label %45

45:                                               ; preds = %36, %33
  %46 = phi i1 [ false, %33 ], [ %44, %36 ]
  br i1 %46, label %47, label %58

47:                                               ; preds = %45
  %48 = load ptr, ptr %10, align 8, !tbaa !25
  %49 = load i64, ptr %11, align 8, !tbaa !13
  %50 = getelementptr inbounds nuw %struct.concat_nodes, ptr %48, i64 %49
  %51 = getelementptr inbounds nuw %struct.concat_nodes, ptr %50, i32 0, i32 1
  %52 = load i64, ptr %51, align 8, !tbaa !33
  %53 = load i64, ptr %6, align 8, !tbaa !13
  %54 = add nsw i64 %53, %52
  store i64 %54, ptr %6, align 8, !tbaa !13
  br label %55

55:                                               ; preds = %47
  %56 = load i64, ptr %11, align 8, !tbaa !13
  %57 = add i64 %56, -1
  store i64 %57, ptr %11, align 8, !tbaa !13
  br label %33, !llvm.loop !39

58:                                               ; preds = %45
  br label %117

59:                                               ; preds = %26
  store i64 0, ptr %11, align 8, !tbaa !13
  br label %60

60:                                               ; preds = %74, %59
  %61 = load i64, ptr %11, align 8, !tbaa !13
  %62 = load ptr, ptr %9, align 8, !tbaa !20
  %63 = getelementptr inbounds nuw %struct.concat_data, ptr %62, i32 0, i32 2
  %64 = load i64, ptr %63, align 8, !tbaa !37
  %65 = icmp ne i64 %61, %64
  br i1 %65, label %66, label %77

66:                                               ; preds = %60
  %67 = load ptr, ptr %10, align 8, !tbaa !25
  %68 = load i64, ptr %11, align 8, !tbaa !13
  %69 = getelementptr inbounds nuw %struct.concat_nodes, ptr %67, i64 %68
  %70 = getelementptr inbounds nuw %struct.concat_nodes, ptr %69, i32 0, i32 1
  %71 = load i64, ptr %70, align 8, !tbaa !33
  %72 = load i64, ptr %6, align 8, !tbaa !13
  %73 = add nsw i64 %72, %71
  store i64 %73, ptr %6, align 8, !tbaa !13
  br label %74

74:                                               ; preds = %66
  %75 = load i64, ptr %11, align 8, !tbaa !13
  %76 = add i64 %75, 1
  store i64 %76, ptr %11, align 8, !tbaa !13
  br label %60, !llvm.loop !40

77:                                               ; preds = %60
  %78 = load ptr, ptr %10, align 8, !tbaa !25
  %79 = load i64, ptr %11, align 8, !tbaa !13
  %80 = getelementptr inbounds nuw %struct.concat_nodes, ptr %78, i64 %79
  %81 = getelementptr inbounds nuw %struct.concat_nodes, ptr %80, i32 0, i32 0
  %82 = load ptr, ptr %81, align 8, !tbaa !31
  %83 = call i64 @ffurl_seek(ptr noundef %82, i64 noundef 0, i32 noundef 1)
  %84 = load i64, ptr %6, align 8, !tbaa !13
  %85 = add nsw i64 %84, %83
  store i64 %85, ptr %6, align 8, !tbaa !13
  store i32 0, ptr %7, align 4, !tbaa !11
  br label %86

86:                                               ; preds = %26, %77
  store i64 0, ptr %11, align 8, !tbaa !13
  br label %87

87:                                               ; preds = %112, %86
  %88 = load i64, ptr %11, align 8, !tbaa !13
  %89 = load ptr, ptr %9, align 8, !tbaa !20
  %90 = getelementptr inbounds nuw %struct.concat_data, ptr %89, i32 0, i32 1
  %91 = load i64, ptr %90, align 8, !tbaa !35
  %92 = sub i64 %91, 1
  %93 = icmp ne i64 %88, %92
  br i1 %93, label %94, label %102

94:                                               ; preds = %87
  %95 = load i64, ptr %6, align 8, !tbaa !13
  %96 = load ptr, ptr %10, align 8, !tbaa !25
  %97 = load i64, ptr %11, align 8, !tbaa !13
  %98 = getelementptr inbounds nuw %struct.concat_nodes, ptr %96, i64 %97
  %99 = getelementptr inbounds nuw %struct.concat_nodes, ptr %98, i32 0, i32 1
  %100 = load i64, ptr %99, align 8, !tbaa !33
  %101 = icmp sge i64 %95, %100
  br label %102

102:                                              ; preds = %94, %87
  %103 = phi i1 [ false, %87 ], [ %101, %94 ]
  br i1 %103, label %104, label %115

104:                                              ; preds = %102
  %105 = load ptr, ptr %10, align 8, !tbaa !25
  %106 = load i64, ptr %11, align 8, !tbaa !13
  %107 = getelementptr inbounds nuw %struct.concat_nodes, ptr %105, i64 %106
  %108 = getelementptr inbounds nuw %struct.concat_nodes, ptr %107, i32 0, i32 1
  %109 = load i64, ptr %108, align 8, !tbaa !33
  %110 = load i64, ptr %6, align 8, !tbaa !13
  %111 = sub nsw i64 %110, %109
  store i64 %111, ptr %6, align 8, !tbaa !13
  br label %112

112:                                              ; preds = %104
  %113 = load i64, ptr %11, align 8, !tbaa !13
  %114 = add i64 %113, 1
  store i64 %114, ptr %11, align 8, !tbaa !13
  br label %87, !llvm.loop !41

115:                                              ; preds = %102
  br label %117

116:                                              ; preds = %26
  store i64 -22, ptr %4, align 8
  store i32 1, ptr %12, align 4
  br label %147

117:                                              ; preds = %115, %58
  %118 = load ptr, ptr %10, align 8, !tbaa !25
  %119 = load i64, ptr %11, align 8, !tbaa !13
  %120 = getelementptr inbounds nuw %struct.concat_nodes, ptr %118, i64 %119
  %121 = getelementptr inbounds nuw %struct.concat_nodes, ptr %120, i32 0, i32 0
  %122 = load ptr, ptr %121, align 8, !tbaa !31
  %123 = load i64, ptr %6, align 8, !tbaa !13
  %124 = load i32, ptr %7, align 4, !tbaa !11
  %125 = call i64 @ffurl_seek(ptr noundef %122, i64 noundef %123, i32 noundef %124)
  store i64 %125, ptr %8, align 8, !tbaa !13
  %126 = load i64, ptr %8, align 8, !tbaa !13
  %127 = icmp sge i64 %126, 0
  br i1 %127, label %128, label %145

128:                                              ; preds = %117
  %129 = load i64, ptr %11, align 8, !tbaa !13
  %130 = load ptr, ptr %9, align 8, !tbaa !20
  %131 = getelementptr inbounds nuw %struct.concat_data, ptr %130, i32 0, i32 2
  store i64 %129, ptr %131, align 8, !tbaa !37
  br label %132

132:                                              ; preds = %135, %128
  %133 = load i64, ptr %11, align 8, !tbaa !13
  %134 = icmp ne i64 %133, 0
  br i1 %134, label %135, label %144

135:                                              ; preds = %132
  %136 = load ptr, ptr %10, align 8, !tbaa !25
  %137 = load i64, ptr %11, align 8, !tbaa !13
  %138 = add i64 %137, -1
  store i64 %138, ptr %11, align 8, !tbaa !13
  %139 = getelementptr inbounds nuw %struct.concat_nodes, ptr %136, i64 %138
  %140 = getelementptr inbounds nuw %struct.concat_nodes, ptr %139, i32 0, i32 1
  %141 = load i64, ptr %140, align 8, !tbaa !33
  %142 = load i64, ptr %8, align 8, !tbaa !13
  %143 = add nsw i64 %142, %141
  store i64 %143, ptr %8, align 8, !tbaa !13
  br label %132, !llvm.loop !42

144:                                              ; preds = %132
  br label %145

145:                                              ; preds = %144, %117
  %146 = load i64, ptr %8, align 8, !tbaa !13
  store i64 %146, ptr %4, align 8
  store i32 1, ptr %12, align 4
  br label %147

147:                                              ; preds = %145, %116, %22
  call void @llvm.lifetime.end.p0(i64 8, ptr %11) #6
  call void @llvm.lifetime.end.p0(i64 8, ptr %10) #6
  call void @llvm.lifetime.end.p0(i64 8, ptr %9) #6
  call void @llvm.lifetime.end.p0(i64 8, ptr %8) #6
  %148 = load i64, ptr %4, align 8
  ret i64 %148
}