; Function Attrs: nounwind uwtable
define internal i64 @concat_seek(ptr noundef readonly captures(none) %0, i64 noundef %1, i32 noundef %2) #1 {
  %4 = getelementptr inbounds nuw i8, ptr %0, i64 16
  %5 = load ptr, ptr %4, align 8, !tbaa !9
  %6 = load ptr, ptr %5, align 8, !tbaa !19
  %7 = and i32 %2, 65536
  %.not = icmp eq i32 %7, 0
  br i1 %.not, label %11, label %8

8:                                                ; preds = %3
  %9 = getelementptr inbounds nuw i8, ptr %5, i64 24
  %10 = load i64, ptr %9, align 8, !tbaa !31
  br label %.loopexit

11:                                               ; preds = %3
  switch i32 %2, label %.loopexit [
    i32 2, label %14
    i32 1, label %.preheader
    i32 0, label %31
  ]

.preheader:                                       ; preds = %11
  %12 = getelementptr inbounds nuw i8, ptr %5, i64 16
  %13 = load i64, ptr %12, align 8, !tbaa !32
  %.not6167 = icmp eq i64 %13, 0
  br i1 %.not6167, label %._crit_edge, label %.lr.ph

14:                                               ; preds = %11
  %15 = getelementptr inbounds nuw i8, ptr %5, i64 8
  %16 = load i64, ptr %15, align 8, !tbaa !30
  %.081 = add i64 %16, -1
  %.not6482 = icmp eq i64 %.081, 0
  br i1 %.not6482, label %.critedge, label %.lr.ph86

17:                                               ; preds = %.lr.ph86
  %18 = add nsw i64 %20, %.14883
  %.0 = add i64 %.084, -1
  %.not64 = icmp eq i64 %.0, 0
  br i1 %.not64, label %.critedge, label %.lr.ph86, !llvm.loop !34

.lr.ph86:                                         ; preds = %14, %17
  %.084 = phi i64 [ %.0, %17 ], [ %.081, %14 ]
  %.14883 = phi i64 [ %18, %17 ], [ %1, %14 ]
  %19 = getelementptr inbounds nuw %struct.concat_nodes, ptr %6, i64 %.084, i32 1
  %20 = load i64, ptr %19, align 8, !tbaa !28
  %21 = sub nsw i64 0, %20
  %22 = icmp slt i64 %.14883, %21
  br i1 %22, label %17, label %.critedge

.lr.ph:                                           ; preds = %.preheader, %.lr.ph
  %.269 = phi i64 [ %26, %.lr.ph ], [ 0, %.preheader ]
  %.35068 = phi i64 [ %25, %.lr.ph ], [ %1, %.preheader ]
  %23 = getelementptr inbounds nuw %struct.concat_nodes, ptr %6, i64 %.269, i32 1
  %24 = load i64, ptr %23, align 8, !tbaa !28
  %25 = add nsw i64 %24, %.35068
  %26 = add nuw i64 %.269, 1
  %.not61 = icmp eq i64 %26, %13
  br i1 %.not61, label %._crit_edge, label %.lr.ph, !llvm.loop !35

._crit_edge:                                      ; preds = %.lr.ph, %.preheader
  %.350.lcssa = phi i64 [ %1, %.preheader ], [ %25, %.lr.ph ]
  %27 = getelementptr inbounds nuw %struct.concat_nodes, ptr %6, i64 %13
  %28 = load ptr, ptr %27, align 8, !tbaa !26
  %29 = tail call i64 @ffurl_seek2(ptr noundef %28, i64 noundef 0, i32 noundef 1) #5
  %30 = add nsw i64 %29, %.350.lcssa
  br label %31

31:                                               ; preds = %._crit_edge, %11
  %.047 = phi i64 [ %1, %11 ], [ %30, %._crit_edge ]
  %32 = getelementptr inbounds nuw i8, ptr %5, i64 8
  %33 = load i64, ptr %32, align 8, !tbaa !30
  %34 = add i64 %33, -1
  %.not6271 = icmp eq i64 %34, 0
  br i1 %.not6271, label %.critedge, label %.lr.ph75

.lr.ph75:                                         ; preds = %31, %37
  %.373 = phi i64 [ %39, %37 ], [ 0, %31 ]
  %.45172 = phi i64 [ %38, %37 ], [ %.047, %31 ]
  %35 = getelementptr inbounds nuw %struct.concat_nodes, ptr %6, i64 %.373, i32 1
  %36 = load i64, ptr %35, align 8, !tbaa !28
  %.not63 = icmp slt i64 %.45172, %36
  br i1 %.not63, label %.critedge, label %37

37:                                               ; preds = %.lr.ph75
  %38 = sub nsw i64 %.45172, %36
  %39 = add nuw i64 %.373, 1
  %.not62 = icmp eq i64 %39, %34
  br i1 %.not62, label %.critedge, label %.lr.ph75, !llvm.loop !36

.critedge:                                        ; preds = %37, %.lr.ph75, %17, %.lr.ph86, %31, %14
  %.155 = phi i32 [ 2, %14 ], [ 0, %31 ], [ 2, %.lr.ph86 ], [ 2, %17 ], [ 0, %.lr.ph75 ], [ 0, %37 ]
  %.249 = phi i64 [ %1, %14 ], [ %.047, %31 ], [ %18, %17 ], [ %.14883, %.lr.ph86 ], [ %38, %37 ], [ %.45172, %.lr.ph75 ]
  %.1 = phi i64 [ 0, %14 ], [ 0, %31 ], [ 0, %17 ], [ %.084, %.lr.ph86 ], [ %34, %37 ], [ %.373, %.lr.ph75 ]
  %40 = getelementptr inbounds nuw %struct.concat_nodes, ptr %6, i64 %.1
  %41 = load ptr, ptr %40, align 8, !tbaa !26
  %42 = tail call i64 @ffurl_seek2(ptr noundef %41, i64 noundef %.249, i32 noundef range(i32 0, 3) %.155) #5
  %43 = icmp sgt i64 %42, -1
  br i1 %43, label %44, label %.loopexit

44:                                               ; preds = %.critedge
  %45 = getelementptr inbounds nuw i8, ptr %5, i64 16
  store i64 %.1, ptr %45, align 8, !tbaa !32
  %.not6592 = icmp eq i64 %.1, 0
  br i1 %.not6592, label %.loopexit, label %.lr.ph96

.lr.ph96:                                         ; preds = %44, %.lr.ph96
  %.494 = phi i64 [ %46, %.lr.ph96 ], [ %.1, %44 ]
  %.15393 = phi i64 [ %49, %.lr.ph96 ], [ %42, %44 ]
  %46 = add i64 %.494, -1
  %47 = getelementptr inbounds nuw %struct.concat_nodes, ptr %6, i64 %46, i32 1
  %48 = load i64, ptr %47, align 8, !tbaa !28
  %49 = add nsw i64 %48, %.15393
  %.not65 = icmp eq i64 %46, 0
  br i1 %.not65, label %.loopexit, label %.lr.ph96, !llvm.loop !37

.loopexit:                                        ; preds = %.lr.ph96, %44, %.critedge, %11, %8
  %.046 = phi i64 [ %10, %8 ], [ -22, %11 ], [ %42, %.critedge ], [ %42, %44 ], [ %49, %.lr.ph96 ]
  ret i64 %.046
}